target datalayout = "e-m:e-p270:32:32-p271:32:32-p272:64:64-i64:64-i128:128-f80:128-n8:16:32:64-S128"
target triple = "x86_64-unknown-linux-gnu"

%"class.icu_75::TimeZoneNamesDelegate" = type { %"class.icu_75::TimeZoneNames", ptr }
%"class.icu_75::TimeZoneNames" = type { %"class.icu_75::UObject" }
%"class.icu_75::UObject" = type { ptr }

@_ZTIN6icu_7513TimeZoneNamesE = constant { ptr, ptr, ptr } { ptr getelementptr inbounds (ptr, ptr @_ZTVN10__cxxabiv120__si_class_type_infoE, i64 2), ptr @_ZTSN6icu_7513TimeZoneNamesE, ptr @_ZTIN6icu_757UObjectE }, align 8
@_ZTIN6icu_7521TimeZoneNamesDelegateE = constant { ptr, ptr, ptr } { ptr getelementptr inbounds (ptr, ptr @_ZTVN10__cxxabiv120__si_class_type_infoE, i64 2), ptr @_ZTSN6icu_7521TimeZoneNamesDelegateE, ptr @_ZTIN6icu_7513TimeZoneNamesE }, align 8

; Function Attrs: mustprogress nounwind uwtable
define noundef zeroext i1 @_ZNK6icu_7521TimeZoneNamesDelegateeqERKNS_13TimeZoneNamesE(ptr noundef nonnull align 8 dereferenceable(16) %this, ptr noundef nonnull align 8 dereferenceable(8) %other) unnamed_addr #0 align 2 {
entry:
  %retval = alloca i1, align 1
  %this.addr = alloca ptr, align 8
  %other.addr = alloca ptr, align 8
  %rhs = alloca ptr, align 8
  store ptr %this, ptr %this.addr, align 8
  store ptr %other, ptr %other.addr, align 8
  %this1 = load ptr, ptr %this.addr, align 8
  %0 = load ptr, ptr %other.addr, align 8
  %cmp = icmp eq ptr %this1, %0
  br i1 %cmp, label %if.then, label %if.end

if.then:                                          ; preds = %entry
  store i1 true, ptr %retval, align 1
  br label %return

if.end:                                           ; preds = %entry
  %1 = load ptr, ptr %other.addr, align 8
  %2 = icmp eq ptr %1, null
  br i1 %2, label %dynamic_cast.null, label %dynamic_cast.notnull

dynamic_cast.notnull:                             ; preds = %if.end
  %3 = call ptr @__dynamic_cast(ptr %1, ptr @_ZTIN6icu_7513TimeZoneNamesE, ptr @_ZTIN6icu_7521TimeZoneNamesDelegateE, i64 0) #9
  br label %dynamic_cast.end

dynamic_cast.null:                                ; preds = %if.end
  br label %dynamic_cast.end

dynamic_cast.end:                                 ; preds = %dynamic_cast.null, %dynamic_cast.notnull
  %4 = phi ptr [ %3, %dynamic_cast.notnull ], [ null, %dynamic_cast.null ]
  store ptr %4, ptr %rhs, align 8
  %5 = load ptr, ptr %rhs, align 8
  %tobool = icmp ne ptr %5, null
  br i1 %tobool, label %if.then2, label %if.end5

if.then2:                                         ; preds = %dynamic_cast.end
  %fTZnamesCacheEntry = getelementptr inbounds %"class.icu_75::TimeZoneNamesDelegate", ptr %this1, i32 0, i32 1
  %6 = load ptr, ptr %fTZnamesCacheEntry, align 8
  %7 = load ptr, ptr %rhs, align 8
  %fTZnamesCacheEntry3 = getelementptr inbounds %"class.icu_75::TimeZoneNamesDelegate", ptr %7, i32 0, i32 1
  %8 = load ptr, ptr %fTZnamesCacheEntry3, align 8
  %cmp4 = icmp eq ptr %6, %8
  store i1 %cmp4, ptr %retval, align 1
  br label %return

if.end5:                                          ; preds = %dynamic_cast.end
  store i1 false, ptr %retval, align 1
  br label %return

return:                                           ; preds = %if.end5, %if.then2, %if.then
  %9 = load i1, ptr %retval, align 1
  ret i1 %9
}