; Function Attrs: mustprogress nofree nounwind willreturn memory(read) uwtable
define noundef zeroext i1 @_ZNK6icu_7521TimeZoneNamesDelegateeqERKNS_13TimeZoneNamesE(ptr noundef nonnull readonly align 8 dereferenceable(16) %this, ptr noundef nonnull readonly align 8 dereferenceable(8) %other) unnamed_addr #9 align 2 {
entry:
  %cmp = icmp eq ptr %this, %other
  br i1 %cmp, label %return, label %dynamic_cast.notnull

dynamic_cast.notnull:                             ; preds = %entry
  %0 = tail call ptr @__dynamic_cast(ptr nonnull %other, ptr nonnull @_ZTIN6icu_7513TimeZoneNamesE, ptr nonnull @_ZTIN6icu_7521TimeZoneNamesDelegateE, i64 0) #17
  %tobool.not = icmp eq ptr %0, null
  br i1 %tobool.not, label %return, label %if.then2

if.then2:                                         ; preds = %dynamic_cast.notnull
  %fTZnamesCacheEntry = getelementptr inbounds i8, ptr %this, i64 8
  %1 = load ptr, ptr %fTZnamesCacheEntry, align 8
  %fTZnamesCacheEntry3 = getelementptr inbounds i8, ptr %0, i64 8
  %2 = load ptr, ptr %fTZnamesCacheEntry3, align 8
  %cmp4 = icmp eq ptr %1, %2
  br label %return

return:                                           ; preds = %dynamic_cast.notnull, %entry, %if.then2
  %retval.0 = phi i1 [ %cmp4, %if.then2 ], [ true, %entry ], [ false, %dynamic_cast.notnull ]
  ret i1 %retval.0
}